target datalayout = "e-m:e-p270:32:32-p271:32:32-p272:64:64-i64:64-i128:128-f80:128-n8:16:32:64-S128"
target triple = "x86_64-pc-linux-gnu"

%struct.t_trxframe = type { i32, i8, i32, i8, i64, i8, float, i8, i8, float, i32, i8, ptr, i8, float, i8, ptr, i8, ptr, i8, ptr, i8, [3 x [3 x float]], i8, i32, i8, ptr }

; Function Attrs: mustprogress uwtable
define void @_Z27gmx_write_tng_from_trxframeP18gmx_tng_trajectoryPK10t_trxframei(ptr noundef %0, ptr noundef %1, i32 noundef %2) #0 {
  %4 = alloca ptr, align 8
  %5 = alloca ptr, align 8
  %6 = alloca i32, align 4
  store ptr %0, ptr %4, align 8, !tbaa !13
  store ptr %1, ptr %5, align 8, !tbaa !380
  store i32 %2, ptr %6, align 4, !tbaa !159
  %7 = load i32, ptr %6, align 4, !tbaa !159
  %8 = icmp slt i32 %7, 0
  br i1 %8, label %9, label %13

9:                                                ; preds = %3
  %10 = load ptr, ptr %5, align 8, !tbaa !380
  %11 = getelementptr inbounds nuw %struct.t_trxframe, ptr %10, i32 0, i32 2
  %12 = load i32, ptr %11, align 8, !tbaa !382
  store i32 %12, ptr %6, align 4, !tbaa !159
  br label %13

13:                                               ; preds = %9, %3
  %14 = load ptr, ptr %4, align 8, !tbaa !13
  %15 = load ptr, ptr %5, align 8, !tbaa !380
  %16 = getelementptr inbounds nuw %struct.t_trxframe, ptr %15, i32 0, i32 4
  %17 = load i64, ptr %16, align 8, !tbaa !384
  %18 = load ptr, ptr %5, align 8, !tbaa !380
  %19 = getelementptr inbounds nuw %struct.t_trxframe, ptr %18, i32 0, i32 6
  %20 = load float, ptr %19, align 4, !tbaa !385
  %21 = load ptr, ptr %5, align 8, !tbaa !380
  %22 = getelementptr inbounds nuw %struct.t_trxframe, ptr %21, i32 0, i32 22
  %23 = getelementptr inbounds [3 x [3 x float]], ptr %22, i64 0, i64 0
  %24 = load i32, ptr %6, align 4, !tbaa !159
  %25 = load ptr, ptr %5, align 8, !tbaa !380
  %26 = getelementptr inbounds nuw %struct.t_trxframe, ptr %25, i32 0, i32 16
  %27 = load ptr, ptr %26, align 8, !tbaa !386
  %28 = load ptr, ptr %5, align 8, !tbaa !380
  %29 = getelementptr inbounds nuw %struct.t_trxframe, ptr %28, i32 0, i32 18
  %30 = load ptr, ptr %29, align 8, !tbaa !387
  %31 = load ptr, ptr %5, align 8, !tbaa !380
  %32 = getelementptr inbounds nuw %struct.t_trxframe, ptr %31, i32 0, i32 20
  %33 = load ptr, ptr %32, align 8, !tbaa !388
  call void @_Z14gmx_fwrite_tngP18gmx_tng_trajectoryblffPA3_KfiS3_S3_S3_(ptr noundef %14, i1 noundef zeroext true, i64 noundef %17, float noundef %20, float noundef 0.000000e+00, ptr noundef %23, i32 noundef %24, ptr noundef %27, ptr noundef %30, ptr noundef %33)
  ret void
}