; Function Attrs: mustprogress uwtable
define void @_Z27gmx_write_tng_from_trxframeP18gmx_tng_trajectoryPK10t_trxframei(ptr noundef %0, ptr noundef %1, i32 noundef %2) local_unnamed_addr #0 {
  %4 = icmp slt i32 %2, 0
  br i1 %4, label %5, label %8

5:                                                ; preds = %3
  %6 = getelementptr inbounds nuw i8, ptr %1, i64 8
  %7 = load i32, ptr %6, align 8, !tbaa !267
  br label %8

8:                                                ; preds = %5, %3
  %.0 = phi i32 [ %7, %5 ], [ %2, %3 ]
  %9 = getelementptr inbounds nuw i8, ptr %1, i64 16
  %10 = load i64, ptr %9, align 8, !tbaa !270
  %11 = getelementptr inbounds nuw i8, ptr %1, i64 28
  %12 = load float, ptr %11, align 4, !tbaa !271
  %13 = getelementptr inbounds nuw i8, ptr %1, i64 116
  %14 = getelementptr inbounds nuw i8, ptr %1, i64 72
  %15 = load ptr, ptr %14, align 8, !tbaa !272
  %16 = getelementptr inbounds nuw i8, ptr %1, i64 88
  %17 = load ptr, ptr %16, align 8, !tbaa !273
  %18 = getelementptr inbounds nuw i8, ptr %1, i64 104
  %19 = load ptr, ptr %18, align 8, !tbaa !274
  tail call void @_Z14gmx_fwrite_tngP18gmx_tng_trajectoryblffPA3_KfiS3_S3_S3_(ptr noundef %0, i1 noundef zeroext true, i64 noundef %10, float noundef %12, float noundef 0.000000e+00, ptr noundef nonnull %13, i32 noundef %.0, ptr noundef %15, ptr noundef %17, ptr noundef %19)
  ret void
}